target datalayout = "e-m:e-p270:32:32-p271:32:32-p272:64:64-i64:64-i128:128-f80:128-n8:16:32:64-S128"
target triple = "x86_64-pc-linux-gnu"

%class.CodeBuffer = type { ptr, %class.CodeSection, %class.CodeSection, %class.CodeSection, ptr, ptr, ptr, i32, ptr, %class.OopRecorder, ptr, ptr, ptr, ptr, ptr, i8, i32 }
%class.CodeSection = type { ptr, ptr, ptr, ptr, ptr, ptr, ptr, ptr, i8, i8, i32, i8, ptr }
%class.OopRecorder = type { %class.ValueRecorder, %class.ValueRecorder.0, ptr }
%class.ValueRecorder = type <{ ptr, ptr, ptr, ptr, i8, [7 x i8] }>
%class.ValueRecorder.0 = type <{ ptr, ptr, ptr, ptr, i8, [7 x i8] }>
%class.CodeBlob = type <{ ptr, ptr, ptr, i32, i32, i32, i32, i32, i32, i16, i16, i8, i8, [2 x i8] }>

@g_assert_poison = external global ptr, align 8
@.str = private unnamed_addr constant [37 x i8] c"src/hotspot/share/asm/codeBuffer.cpp\00", align 1
@CodeEntryAlignment = external global i64, align 8

; Function Attrs: mustprogress nounwind uwtable
define linkonce_odr hidden noundef ptr @_ZNK8CodeBlob12header_beginEv(ptr noundef nonnull align 8 dereferenceable(54) %0) #1 comdat align 2 {
  %2 = alloca ptr, align 8
  store ptr %0, ptr %2, align 8
  %3 = load ptr, ptr %2, align 8
  ret ptr %3
}

; Function Attrs: mustprogress nounwind uwtable
define hidden noundef i32 @_ZNK11CodeSection9alignmentEv(ptr noundef nonnull align 8 dereferenceable(88) %0) #1 align 2 {
  %2 = alloca i32, align 4
  %3 = alloca ptr, align 8
  store ptr %0, ptr %3, align 8
  %4 = load ptr, ptr %3, align 8
  %5 = getelementptr inbounds %class.CodeSection, ptr %4, i32 0, i32 11
  %6 = load i8, ptr %5, align 8
  %7 = sext i8 %6 to i32
  %8 = icmp eq i32 %7, 0
  br i1 %8, label %9, label %14

9:                                                ; preds = %1
  %10 = getelementptr inbounds %class.CodeSection, ptr %4, i32 0, i32 12
  %11 = load ptr, ptr %10, align 8
  %12 = getelementptr inbounds %class.CodeBuffer, ptr %11, i32 0, i32 16
  %13 = load i32, ptr %12, align 4
  store i32 %13, ptr %2, align 4
  br label %32

14:                                               ; preds = %1
  %15 = getelementptr inbounds %class.CodeSection, ptr %4, i32 0, i32 11
  %16 = load i8, ptr %15, align 8
  %17 = sext i8 %16 to i32
  %18 = icmp eq i32 %17, 1
  br i1 %18, label %19, label %22

19:                                               ; preds = %14
  %20 = load i64, ptr @CodeEntryAlignment, align 8
  %21 = trunc i64 %20 to i32
  store i32 %21, ptr %2, align 4
  br label %32

22:                                               ; preds = %14
  %23 = getelementptr inbounds %class.CodeSection, ptr %4, i32 0, i32 11
  %24 = load i8, ptr %23, align 8
  %25 = sext i8 %24 to i32
  %26 = icmp eq i32 %25, 2
  br i1 %26, label %27, label %28

27:                                               ; preds = %22
  store i32 8, ptr %2, align 4
  br label %32

28:                                               ; preds = %22
  br label %29

29:                                               ; preds = %28
  %30 = load ptr, ptr @g_assert_poison, align 8
  store i8 88, ptr %30, align 1
  call void @_Z28report_should_not_reach_herePKci(ptr noundef @.str, i32 noundef 441) #9
  unreachable

31:                                               ; No predecessors!
  store i32 0, ptr %2, align 4
  br label %32

32:                                               ; preds = %31, %27, %19, %9
  %33 = load i32, ptr %2, align 4
  ret i32 %33
}

; Function Attrs: mustprogress nounwind uwtable
define linkonce_odr hidden noundef ptr @_ZNK8CodeBlob11content_endEv(ptr noundef nonnull align 8 dereferenceable(54) %0) #1 comdat align 2 {
  %2 = alloca ptr, align 8
  store ptr %0, ptr %2, align 8
  %3 = load ptr, ptr %2, align 8
  %4 = call noundef ptr @_ZNK8CodeBlob12header_beginEv(ptr noundef nonnull align 8 dereferenceable(54) %3)
  %5 = getelementptr inbounds %class.CodeBlob, ptr %3, i32 0, i32 7
  %6 = load i32, ptr %5, align 8
  %7 = sext i32 %6 to i64
  %8 = getelementptr inbounds i8, ptr %4, i64 %7
  ret ptr %8
}

; Function Attrs: mustprogress nounwind uwtable
define linkonce_odr hidden noundef ptr @_ZNK8CodeBlob13content_beginEv(ptr noundef nonnull align 8 dereferenceable(54) %0) #1 comdat align 2 {
  %2 = alloca ptr, align 8
  store ptr %0, ptr %2, align 8
  %3 = load ptr, ptr %2, align 8
  %4 = call noundef ptr @_ZNK8CodeBlob12header_beginEv(ptr noundef nonnull align 8 dereferenceable(54) %3)
  %5 = getelementptr inbounds %class.CodeBlob, ptr %3, i32 0, i32 5
  %6 = load i32, ptr %5, align 8
  %7 = sext i32 %6 to i64
  %8 = getelementptr inbounds i8, ptr %4, i64 %7
  ret ptr %8
}

; Function Attrs: mustprogress nounwind uwtable
define hidden void @_ZN10CodeBuffer8set_blobEP10BufferBlob(ptr noundef nonnull align 8 dereferenceable(448) %0, ptr noundef %1) #1 align 2 {
  %3 = alloca ptr, align 8
  %4 = alloca ptr, align 8
  %5 = alloca ptr, align 8
  %6 = alloca ptr, align 8
  %7 = alloca i32, align 4
  store ptr %0, ptr %3, align 8
  store ptr %1, ptr %4, align 8
  %8 = load ptr, ptr %3, align 8
  %9 = load ptr, ptr %4, align 8
  %10 = getelementptr inbounds %class.CodeBuffer, ptr %8, i32 0, i32 5
  store ptr %9, ptr %10, align 8
  %11 = load ptr, ptr %4, align 8
  %12 = icmp ne ptr %11, null
  br i1 %12, label %13, label %38

13:                                               ; preds = %2
  %14 = load ptr, ptr %4, align 8
  %15 = call noundef ptr @_ZNK8CodeBlob13content_beginEv(ptr noundef nonnull align 8 dereferenceable(54) %14)
  store ptr %15, ptr %5, align 8
  %16 = load ptr, ptr %4, align 8
  %17 = call noundef ptr @_ZNK8CodeBlob11content_endEv(ptr noundef nonnull align 8 dereferenceable(54) %16)
  store ptr %17, ptr %6, align 8
  %18 = getelementptr inbounds %class.CodeBuffer, ptr %8, i32 0, i32 2
  %19 = call noundef i32 @_ZNK11CodeSection9alignmentEv(ptr noundef nonnull align 8 dereferenceable(88) %18)
  store i32 %19, ptr %7, align 4
  %20 = load ptr, ptr %5, align 8
  %21 = ptrtoint ptr %20 to i64
  %22 = sub nsw i64 0, %21
  %23 = load i32, ptr %7, align 4
  %24 = sub nsw i32 %23, 1
  %25 = sext i32 %24 to i64
  %26 = and i64 %22, %25
  %27 = load ptr, ptr %5, align 8
  %28 = getelementptr inbounds i8, ptr %27, i64 %26
  store ptr %28, ptr %5, align 8
  %29 = load ptr, ptr %5, align 8
  %30 = getelementptr inbounds %class.CodeBuffer, ptr %8, i32 0, i32 6
  store ptr %29, ptr %30, align 8
  %31 = load ptr, ptr %6, align 8
  %32 = load ptr, ptr %5, align 8
  %33 = ptrtoint ptr %31 to i64
  %34 = ptrtoint ptr %32 to i64
  %35 = sub i64 %33, %34
  %36 = trunc i64 %35 to i32
  %37 = getelementptr inbounds %class.CodeBuffer, ptr %8, i32 0, i32 7
  store i32 %36, ptr %37, align 8
  br label %39

38:                                               ; preds = %2
  br label %39

39:                                               ; preds = %38, %13
  ret void
}