; Function Attrs: mustprogress nounwind uwtable
define hidden void @_ZN10CodeBuffer8set_blobEP10BufferBlob(ptr nocapture noundef nonnull align 8 dereferenceable(448) %0, ptr noundef %1) local_unnamed_addr #0 align 2 {
  %3 = getelementptr inbounds i8, ptr %0, i64 280
  store ptr %1, ptr %3, align 8
  %.not = icmp eq ptr %1, null
  br i1 %.not, label %37, label %4

4:                                                ; preds = %2
  %5 = getelementptr inbounds i8, ptr %1, i64 32
  %6 = load i32, ptr %5, align 8
  %7 = sext i32 %6 to i64
  %8 = getelementptr inbounds i8, ptr %1, i64 %7
  %9 = getelementptr inbounds i8, ptr %1, i64 40
  %10 = load i32, ptr %9, align 8
  %11 = sext i32 %10 to i64
  %12 = getelementptr inbounds i8, ptr %1, i64 %11
  %13 = getelementptr inbounds i8, ptr %0, i64 168
  %14 = load i8, ptr %13, align 8
  switch i8 %14, label %23 [
    i8 0, label %15
    i8 1, label %20
    i8 2, label %_ZNK11CodeSection9alignmentEv.exit
  ]

15:                                               ; preds = %4
  %16 = getelementptr inbounds i8, ptr %0, i64 176
  %17 = load ptr, ptr %16, align 8
  %18 = getelementptr inbounds i8, ptr %17, i64 444
  %19 = load i32, ptr %18, align 4
  br label %_ZNK11CodeSection9alignmentEv.exit

20:                                               ; preds = %4
  %21 = load i64, ptr @CodeEntryAlignment, align 8
  %22 = trunc i64 %21 to i32
  br label %_ZNK11CodeSection9alignmentEv.exit

23:                                               ; preds = %4
  %24 = load ptr, ptr @g_assert_poison, align 8
  store i8 88, ptr %24, align 1
  tail call void @_Z28report_should_not_reach_herePKci(ptr noundef nonnull @.str, i32 noundef 441) #17
  unreachable

_ZNK11CodeSection9alignmentEv.exit:               ; preds = %4, %15, %20
  %.0.i = phi i32 [ %19, %15 ], [ %22, %20 ], [ 8, %4 ]
  %25 = ptrtoint ptr %8 to i64
  %26 = sub nsw i64 0, %25
  %27 = add nsw i32 %.0.i, -1
  %28 = sext i32 %27 to i64
  %29 = and i64 %28, %26
  %30 = getelementptr inbounds i8, ptr %8, i64 %29
  %31 = getelementptr inbounds i8, ptr %0, i64 288
  store ptr %30, ptr %31, align 8
  %32 = ptrtoint ptr %12 to i64
  %33 = ptrtoint ptr %30 to i64
  %34 = sub i64 %32, %33
  %35 = trunc i64 %34 to i32
  %36 = getelementptr inbounds i8, ptr %0, i64 296
  store i32 %35, ptr %36, align 8
  br label %37

37:                                               ; preds = %2, %_ZNK11CodeSection9alignmentEv.exit
  ret void
}